; Function Attrs: mustprogress nofree norecurse nosync nounwind willreturn memory(read, inaccessiblemem: none) uwtable
define dso_local noundef ptr @_ZN7DepsLog7GetDepsEP4Node(ptr noundef nonnull readonly align 8 captures(none) dereferenceable(96) %0, ptr noundef readonly captures(none) %1) local_unnamed_addr #5 align 2 {
  %3 = getelementptr inbounds nuw i8, ptr %1, i64 112
  %4 = load i32, ptr %3, align 8, !tbaa !50
  %5 = icmp slt i32 %4, 0
  br i1 %5, label %20, label %6

6:                                                ; preds = %2
  %7 = getelementptr inbounds nuw i8, ptr %0, i64 72
  %8 = getelementptr inbounds nuw i8, ptr %0, i64 80
  %9 = load ptr, ptr %8, align 8, !tbaa !47
  %10 = load ptr, ptr %7, align 8, !tbaa !26
  %11 = ptrtoint ptr %9 to i64
  %12 = ptrtoint ptr %10 to i64
  %13 = sub i64 %11, %12
  %14 = lshr exact i64 %13, 3
  %15 = trunc i64 %14 to i32
  %.not = icmp slt i32 %4, %15
  br i1 %.not, label %16, label %20

16:                                               ; preds = %6
  %17 = zext nneg i32 %4 to i64
  %18 = getelementptr inbounds nuw ptr, ptr %10, i64 %17
  %19 = load ptr, ptr %18, align 8, !tbaa !62
  br label %20

20:                                               ; preds = %2, %6, %16
  %.0 = phi ptr [ %19, %16 ], [ null, %6 ], [ null, %2 ]
  ret ptr %.0
}